target datalayout = "e-m:e-p270:32:32-p271:32:32-p272:64:64-i64:64-i128:128-f80:128-n8:16:32:64-S128"
target triple = "x86_64-pc-linux-gnu"

%struct.AVCodecContext = type { ptr, i32, i32, ptr, i32, i32, ptr, ptr, ptr, i64, i32, i32, ptr, i32, %struct.AVRational, %struct.AVRational, %struct.AVRational, i32, i32, i32, i32, i32, %struct.AVRational, i32, i32, i32, i32, i32, i32, i32, i32, i32, i32, i32, ptr, ptr, i32, float, float, float, float, float, float, float, float, float, i32, i32, i32, i32, i32, i32, i32, i32, i32, i32, i32, i32, ptr, ptr, ptr, i32, i32, i32, i32, i32, i32, i32, i32, i32, i32, %struct.AVChannelLayout, i32, i32, i32, i32, i32, i32, i32, i32, ptr, i32, i32, i32, float, float, i32, i32, i32, i32, i32, ptr, i64, i64, float, float, i32, i32, ptr, ptr, i32, i32, i32, i32, i32, ptr, ptr, ptr, ptr, i32, i32, [8 x i64], i32, i32, i32, i32, i32, i32, i32, ptr, ptr, i32, i32, i32, i32, i32, i32, i32, i32, i32, i32, ptr, ptr, i32, i32, ptr, ptr, ptr, ptr, i32, i32, i64, i32, i32, i64, ptr, i64, ptr, i32, ptr, i32 }
%struct.AVRational = type { i32, i32 }
%struct.AVChannelLayout = type { i32, i32, %union.anon.1, ptr }
%union.anon.1 = type { i64 }
%struct.AV1DecContext = type { ptr, ptr, i32, ptr, %struct.CodedBitstreamFragment, ptr, ptr, ptr, ptr, ptr, ptr, ptr, ptr, ptr, ptr, ptr, %struct.DOVIContext, ptr, i16, i16, i16, i32, [8 x %struct.AV1Frame], %struct.AV1Frame, i32, i32, i32 }
%struct.CodedBitstreamFragment = type { ptr, i64, i64, ptr, i32, i32, ptr }
%struct.DOVIContext = type { ptr, i32, %struct.AVDOVIDecoderConfigurationRecord, %struct.AVDOVIRpuDataHeader, ptr, ptr, ptr, ptr, [16 x ptr], ptr, i32 }
%struct.AVDOVIDecoderConfigurationRecord = type { i8, i8, i8, i8, i8, i8, i8, i8, i8 }
%struct.AVDOVIRpuDataHeader = type { i8, i16, i8, i8, i8, i8, i8, i8, i8, i8, i8, i8, i8, i8, i8, i8, i8 }
%struct.AV1Frame = type { %union.anon.2, ptr, ptr, ptr, i32, i32, [8 x i8], [8 x i8], [8 x [6 x i32]], [2 x i8], %struct.AV1RawFilmGrainParams, i8, i8, [8 x i8], [8 x i8], i8 }
%union.anon.2 = type { %struct.ProgressFrame }
%struct.ProgressFrame = type { ptr, ptr }
%struct.AV1RawFilmGrainParams = type { i8, i16, i8, i8, i8, [14 x i8], [14 x i8], i8, i8, [10 x i8], [10 x i8], i8, [10 x i8], [10 x i8], i8, i8, [24 x i8], [25 x i8], [25 x i8], i8, i8, i8, i8, i16, i8, i8, i16, i8, i8 }
%struct.AVCodecInternal = type { i32, i32, i32, ptr, ptr, ptr, ptr, ptr, ptr, ptr, i32, ptr, ptr, ptr, i32, i32, ptr, i32, ptr, ptr, i32, i32 }
%struct.CodedBitstreamContext = type { ptr, ptr, ptr, ptr, i32, i32, i32, ptr, ptr, ptr, ptr, i64 }
%struct.CodedBitstreamAV1Context = type { ptr, ptr, ptr, i32, ptr, ptr, i64, i32, i32, i32, i32, i32, i32, i32, i32, i32, i32, i32, i32, i32, i32, i32, i32, [8 x i32], [8 x i32], [8 x %struct.AV1ReferenceFrameState], i32, i32, [8 x i8], [2 x i8], [8 x [8 x i8]], [8 x [8 x i16]] }
%struct.AV1ReferenceFrameState = type { i32, i32, i32, i32, i32, i32, i32, i32, i32, i32, i32, i32, [8 x i32], [8 x i8], [2 x i8], [8 x [8 x i8]], [8 x [8 x i16]] }
%struct.AVPacketSideData = type { ptr, i64, i32 }

@.str.5 = private unnamed_addr constant [16 x i8] c"operating_point\00", align 1
@decompose_unit_types = internal constant [7 x i32] [i32 6, i32 3, i32 5, i32 7, i32 1, i32 2, i32 4], align 16
@.str.8 = private unnamed_addr constant [27 x i8] c"Failed to read extradata.\0A\00", align 1
@.str.9 = private unnamed_addr constant [31 x i8] c"No sequence header available.\0A\00", align 1
@.str.10 = private unnamed_addr constant [32 x i8] c"Failed to set decoder context.\0A\00", align 1

; Function Attrs: cold nounwind optsize uwtable
define internal i32 @av1_decode_init(ptr noundef %0) #0 {
  %2 = alloca i32, align 4
  %3 = alloca ptr, align 8
  %4 = alloca ptr, align 8
  %5 = alloca ptr, align 8
  %6 = alloca ptr, align 8
  %7 = alloca i32, align 4
  %8 = alloca i32, align 4
  store ptr %0, ptr %3, align 8, !tbaa !4
  call void @llvm.lifetime.start.p0(i64 8, ptr %4) #11
  %9 = load ptr, ptr %3, align 8, !tbaa !4
  %10 = getelementptr inbounds nuw %struct.AVCodecContext, ptr %9, i32 0, i32 6
  %11 = load ptr, ptr %10, align 8, !tbaa !9
  store ptr %11, ptr %4, align 8, !tbaa !29
  call void @llvm.lifetime.start.p0(i64 8, ptr %5) #11
  call void @llvm.lifetime.start.p0(i64 8, ptr %6) #11
  call void @llvm.lifetime.start.p0(i64 4, ptr %7) #11
  %12 = load ptr, ptr %3, align 8, !tbaa !4
  %13 = load ptr, ptr %4, align 8, !tbaa !29
  %14 = getelementptr inbounds nuw %struct.AV1DecContext, ptr %13, i32 0, i32 1
  store ptr %12, ptr %14, align 8, !tbaa !31
  %15 = load ptr, ptr %3, align 8, !tbaa !4
  %16 = getelementptr inbounds nuw %struct.AVCodecContext, ptr %15, i32 0, i32 7
  %17 = load ptr, ptr %16, align 8, !tbaa !53
  %18 = getelementptr inbounds nuw %struct.AVCodecInternal, ptr %17, i32 0, i32 6
  %19 = load ptr, ptr %18, align 8, !tbaa !54
  %20 = load ptr, ptr %4, align 8, !tbaa !29
  %21 = getelementptr inbounds nuw %struct.AV1DecContext, ptr %20, i32 0, i32 5
  store ptr %19, ptr %21, align 8, !tbaa !60
  %22 = load ptr, ptr %4, align 8, !tbaa !29
  %23 = getelementptr inbounds nuw %struct.AV1DecContext, ptr %22, i32 0, i32 2
  store i32 -1, ptr %23, align 8, !tbaa !61
  %24 = load ptr, ptr %4, align 8, !tbaa !29
  %25 = getelementptr inbounds nuw %struct.AV1DecContext, ptr %24, i32 0, i32 3
  %26 = load ptr, ptr %3, align 8, !tbaa !4
  %27 = call i32 @ff_cbs_init(ptr noundef %25, i32 noundef 225, ptr noundef %26)
  store i32 %27, ptr %7, align 4, !tbaa !62
  %28 = load i32, ptr %7, align 4, !tbaa !62
  %29 = icmp slt i32 %28, 0
  br i1 %29, label %30, label %32

30:                                               ; preds = %1
  %31 = load i32, ptr %7, align 4, !tbaa !62
  store i32 %31, ptr %2, align 4
  store i32 1, ptr %8, align 4
  br label %132

32:                                               ; preds = %1
  %33 = load ptr, ptr %4, align 8, !tbaa !29
  %34 = getelementptr inbounds nuw %struct.AV1DecContext, ptr %33, i32 0, i32 3
  %35 = load ptr, ptr %34, align 8, !tbaa !63
  %36 = getelementptr inbounds nuw %struct.CodedBitstreamContext, ptr %35, i32 0, i32 3
  store ptr @decompose_unit_types, ptr %36, align 8, !tbaa !64
  %37 = load ptr, ptr %4, align 8, !tbaa !29
  %38 = getelementptr inbounds nuw %struct.AV1DecContext, ptr %37, i32 0, i32 3
  %39 = load ptr, ptr %38, align 8, !tbaa !63
  %40 = getelementptr inbounds nuw %struct.CodedBitstreamContext, ptr %39, i32 0, i32 4
  store i32 7, ptr %40, align 8, !tbaa !67
  %41 = call ptr @av_fifo_alloc2(i64 noundef 1, i64 noundef 32, i32 noundef 1)
  %42 = load ptr, ptr %4, align 8, !tbaa !29
  %43 = getelementptr inbounds nuw %struct.AV1DecContext, ptr %42, i32 0, i32 17
  store ptr %41, ptr %43, align 8, !tbaa !68
  %44 = load ptr, ptr %4, align 8, !tbaa !29
  %45 = getelementptr inbounds nuw %struct.AV1DecContext, ptr %44, i32 0, i32 17
  %46 = load ptr, ptr %45, align 8, !tbaa !68
  %47 = icmp ne ptr %46, null
  br i1 %47, label %49, label %48

48:                                               ; preds = %32
  store i32 -12, ptr %2, align 4
  store i32 1, ptr %8, align 4
  br label %132

49:                                               ; preds = %32
  %50 = load ptr, ptr %4, align 8, !tbaa !29
  %51 = getelementptr inbounds nuw %struct.AV1DecContext, ptr %50, i32 0, i32 3
  %52 = load ptr, ptr %51, align 8, !tbaa !63
  %53 = getelementptr inbounds nuw %struct.CodedBitstreamContext, ptr %52, i32 0, i32 2
  %54 = load ptr, ptr %53, align 8, !tbaa !69
  %55 = load ptr, ptr %4, align 8, !tbaa !29
  %56 = getelementptr inbounds nuw %struct.AV1DecContext, ptr %55, i32 0, i32 26
  %57 = load i32, ptr %56, align 8, !tbaa !70
  %58 = sext i32 %57 to i64
  %59 = call i32 @av_opt_set_int(ptr noundef %54, ptr noundef @.str.5, i64 noundef %58, i32 noundef 0)
  %60 = load ptr, ptr %3, align 8, !tbaa !4
  %61 = getelementptr inbounds nuw %struct.AVCodecContext, ptr %60, i32 0, i32 12
  %62 = load ptr, ptr %61, align 8, !tbaa !71
  %63 = icmp ne ptr %62, null
  br i1 %63, label %64, label %105

64:                                               ; preds = %49
  %65 = load ptr, ptr %3, align 8, !tbaa !4
  %66 = getelementptr inbounds nuw %struct.AVCodecContext, ptr %65, i32 0, i32 13
  %67 = load i32, ptr %66, align 8, !tbaa !72
  %68 = icmp ne i32 %67, 0
  br i1 %68, label %69, label %105

69:                                               ; preds = %64
  %70 = load ptr, ptr %4, align 8, !tbaa !29
  %71 = getelementptr inbounds nuw %struct.AV1DecContext, ptr %70, i32 0, i32 3
  %72 = load ptr, ptr %71, align 8, !tbaa !63
  %73 = load ptr, ptr %4, align 8, !tbaa !29
  %74 = getelementptr inbounds nuw %struct.AV1DecContext, ptr %73, i32 0, i32 4
  %75 = load ptr, ptr %3, align 8, !tbaa !4
  %76 = call i32 @ff_cbs_read_extradata_from_codec(ptr noundef %72, ptr noundef %74, ptr noundef %75)
  store i32 %76, ptr %7, align 4, !tbaa !62
  %77 = load i32, ptr %7, align 4, !tbaa !62
  %78 = icmp slt i32 %77, 0
  br i1 %78, label %79, label %81

79:                                               ; preds = %69
  %80 = load ptr, ptr %3, align 8, !tbaa !4
  call void (ptr, i32, ptr, ...) @av_log(ptr noundef %80, i32 noundef 24, ptr noundef @.str.8)
  br label %102

81:                                               ; preds = %69
  %82 = load ptr, ptr %4, align 8, !tbaa !29
  %83 = getelementptr inbounds nuw %struct.AV1DecContext, ptr %82, i32 0, i32 3
  %84 = load ptr, ptr %83, align 8, !tbaa !63
  %85 = getelementptr inbounds nuw %struct.CodedBitstreamContext, ptr %84, i32 0, i32 2
  %86 = load ptr, ptr %85, align 8, !tbaa !69
  %87 = getelementptr inbounds nuw %struct.CodedBitstreamAV1Context, ptr %86, i32 0, i32 1
  %88 = load ptr, ptr %87, align 8, !tbaa !73
  store ptr %88, ptr %5, align 8, !tbaa !75
  %89 = load ptr, ptr %5, align 8, !tbaa !75
  %90 = icmp ne ptr %89, null
  br i1 %90, label %93, label %91

91:                                               ; preds = %81
  %92 = load ptr, ptr %3, align 8, !tbaa !4
  call void (ptr, i32, ptr, ...) @av_log(ptr noundef %92, i32 noundef 24, ptr noundef @.str.9)
  br label %102

93:                                               ; preds = %81
  %94 = load ptr, ptr %3, align 8, !tbaa !4
  %95 = load ptr, ptr %5, align 8, !tbaa !75
  %96 = call i32 @set_context_with_sequence(ptr noundef %94, ptr noundef %95)
  store i32 %96, ptr %7, align 4, !tbaa !62
  %97 = load i32, ptr %7, align 4, !tbaa !62
  %98 = icmp slt i32 %97, 0
  br i1 %98, label %99, label %101

99:                                               ; preds = %93
  %100 = load ptr, ptr %3, align 8, !tbaa !4
  call void (ptr, i32, ptr, ...) @av_log(ptr noundef %100, i32 noundef 24, ptr noundef @.str.10)
  br label %102

101:                                              ; preds = %93
  br label %102

102:                                              ; preds = %101, %99, %91, %79
  %103 = load ptr, ptr %4, align 8, !tbaa !29
  %104 = getelementptr inbounds nuw %struct.AV1DecContext, ptr %103, i32 0, i32 4
  call void @ff_cbs_fragment_reset(ptr noundef %104)
  br label %105

105:                                              ; preds = %102, %64, %49
  %106 = load ptr, ptr %3, align 8, !tbaa !4
  %107 = load ptr, ptr %4, align 8, !tbaa !29
  %108 = getelementptr inbounds nuw %struct.AV1DecContext, ptr %107, i32 0, i32 16
  %109 = getelementptr inbounds nuw %struct.DOVIContext, ptr %108, i32 0, i32 0
  store ptr %106, ptr %109, align 8, !tbaa !76
  %110 = load ptr, ptr %4, align 8, !tbaa !29
  %111 = getelementptr inbounds nuw %struct.AV1DecContext, ptr %110, i32 0, i32 16
  %112 = getelementptr inbounds nuw %struct.DOVIContext, ptr %111, i32 0, i32 2
  %113 = getelementptr inbounds nuw %struct.AVDOVIDecoderConfigurationRecord, ptr %112, i32 0, i32 2
  store i8 10, ptr %113, align 2, !tbaa !77
  %114 = load ptr, ptr %3, align 8, !tbaa !4
  %115 = call ptr @ff_get_coded_side_data(ptr noundef %114, i32 noundef 29)
  store ptr %115, ptr %6, align 8, !tbaa !78
  %116 = load ptr, ptr %6, align 8, !tbaa !78
  %117 = icmp ne ptr %116, null
  br i1 %117, label %118, label %130

118:                                              ; preds = %105
  %119 = load ptr, ptr %6, align 8, !tbaa !78
  %120 = getelementptr inbounds nuw %struct.AVPacketSideData, ptr %119, i32 0, i32 1
  %121 = load i64, ptr %120, align 8, !tbaa !79
  %122 = icmp uge i64 %121, 9
  br i1 %122, label %123, label %130

123:                                              ; preds = %118
  %124 = load ptr, ptr %4, align 8, !tbaa !29
  %125 = getelementptr inbounds nuw %struct.AV1DecContext, ptr %124, i32 0, i32 16
  %126 = getelementptr inbounds nuw %struct.DOVIContext, ptr %125, i32 0, i32 2
  %127 = load ptr, ptr %6, align 8, !tbaa !78
  %128 = getelementptr inbounds nuw %struct.AVPacketSideData, ptr %127, i32 0, i32 0
  %129 = load ptr, ptr %128, align 8, !tbaa !81
  call void @llvm.memcpy.p0.p0.i64(ptr align 4 %126, ptr align 1 %129, i64 9, i1 false), !tbaa.struct !82
  br label %130

130:                                              ; preds = %123, %118, %105
  %131 = load i32, ptr %7, align 4, !tbaa !62
  store i32 %131, ptr %2, align 4
  store i32 1, ptr %8, align 4
  br label %132

132:                                              ; preds = %130, %48, %30
  call void @llvm.lifetime.end.p0(i64 4, ptr %7) #11
  call void @llvm.lifetime.end.p0(i64 8, ptr %6) #11
  call void @llvm.lifetime.end.p0(i64 8, ptr %5) #11
  call void @llvm.lifetime.end.p0(i64 8, ptr %4) #11
  %133 = load i32, ptr %2, align 4
  ret i32 %133
}