; Function Attrs: cold nounwind optsize uwtable
define internal i32 @av1_decode_init(ptr noundef %0) #0 {
  %2 = getelementptr inbounds nuw i8, ptr %0, i64 32
  %3 = load ptr, ptr %2, align 8, !tbaa !4
  %4 = getelementptr inbounds nuw i8, ptr %3, i64 8
  store ptr %0, ptr %4, align 8, !tbaa !27
  %5 = getelementptr inbounds nuw i8, ptr %0, i64 40
  %6 = load ptr, ptr %5, align 8, !tbaa !50
  %7 = getelementptr inbounds nuw i8, ptr %6, i64 40
  %8 = load ptr, ptr %7, align 8, !tbaa !51
  %9 = getelementptr inbounds nuw i8, ptr %3, i64 80
  store ptr %8, ptr %9, align 8, !tbaa !57
  %10 = getelementptr inbounds nuw i8, ptr %3, i64 16
  store i32 -1, ptr %10, align 8, !tbaa !58
  %11 = getelementptr inbounds nuw i8, ptr %3, i64 24
  %12 = tail call i32 @ff_cbs_init(ptr noundef nonnull %11, i32 noundef 225, ptr noundef %0) #9
  %13 = icmp slt i32 %12, 0
  br i1 %13, label %59, label %14

14:                                               ; preds = %1
  %15 = load ptr, ptr %11, align 8, !tbaa !59
  %16 = getelementptr inbounds nuw i8, ptr %15, i64 24
  store ptr @decompose_unit_types, ptr %16, align 8, !tbaa !60
  %17 = getelementptr inbounds nuw i8, ptr %15, i64 32
  store i32 7, ptr %17, align 8, !tbaa !63
  %18 = tail call ptr @av_fifo_alloc2(i64 noundef 1, i64 noundef 32, i32 noundef 1) #9
  %19 = getelementptr inbounds nuw i8, ptr %3, i64 392
  store ptr %18, ptr %19, align 8, !tbaa !64
  %.not = icmp eq ptr %18, null
  br i1 %.not, label %59, label %20

20:                                               ; preds = %14
  %21 = load ptr, ptr %11, align 8, !tbaa !59
  %22 = getelementptr inbounds nuw i8, ptr %21, i64 16
  %23 = load ptr, ptr %22, align 8, !tbaa !65
  %24 = getelementptr inbounds nuw i8, ptr %3, i64 4456
  %25 = load i32, ptr %24, align 8, !tbaa !66
  %26 = sext i32 %25 to i64
  %27 = tail call i32 @av_opt_set_int(ptr noundef %23, ptr noundef nonnull @.str.5, i64 noundef %26, i32 noundef 0) #9
  %28 = getelementptr inbounds nuw i8, ptr %0, i64 72
  %29 = load ptr, ptr %28, align 8, !tbaa !67
  %.not49 = icmp eq ptr %29, null
  br i1 %.not49, label %48, label %30

30:                                               ; preds = %20
  %31 = getelementptr inbounds nuw i8, ptr %0, i64 80
  %32 = load i32, ptr %31, align 8, !tbaa !68
  %.not50 = icmp eq i32 %32, 0
  br i1 %.not50, label %48, label %33

33:                                               ; preds = %30
  %34 = load ptr, ptr %11, align 8, !tbaa !59
  %35 = getelementptr inbounds nuw i8, ptr %3, i64 32
  %36 = tail call i32 @ff_cbs_read_extradata_from_codec(ptr noundef %34, ptr noundef nonnull %35, ptr noundef nonnull %0) #9
  %37 = icmp slt i32 %36, 0
  br i1 %37, label %.sink.split, label %38

38:                                               ; preds = %33
  %39 = load ptr, ptr %11, align 8, !tbaa !59
  %40 = getelementptr inbounds nuw i8, ptr %39, i64 16
  %41 = load ptr, ptr %40, align 8, !tbaa !65
  %42 = getelementptr inbounds nuw i8, ptr %41, i64 8
  %43 = load ptr, ptr %42, align 8, !tbaa !69
  %.not51 = icmp eq ptr %43, null
  br i1 %.not51, label %.sink.split, label %44

44:                                               ; preds = %38
  %45 = tail call fastcc i32 @set_context_with_sequence(ptr noundef nonnull %0, ptr noundef %43)
  %46 = icmp slt i32 %45, 0
  br i1 %46, label %.sink.split, label %47

.sink.split:                                      ; preds = %44, %38, %33
  %.str.10.sink = phi ptr [ @.str.8, %33 ], [ @.str.9, %38 ], [ @.str.10, %44 ]
  %.1.ph = phi i32 [ %36, %33 ], [ %36, %38 ], [ %45, %44 ]
  tail call void (ptr, i32, ptr, ...) @av_log(ptr noundef nonnull %0, i32 noundef 24, ptr noundef nonnull %.str.10.sink) #9
  br label %47

47:                                               ; preds = %.sink.split, %44
  %.1 = phi i32 [ 0, %44 ], [ %.1.ph, %.sink.split ]
  tail call void @ff_cbs_fragment_reset(ptr noundef nonnull %35) #9
  br label %48

48:                                               ; preds = %47, %30, %20
  %.0 = phi i32 [ %.1, %47 ], [ %12, %30 ], [ %12, %20 ]
  %49 = getelementptr inbounds nuw i8, ptr %3, i64 168
  store ptr %0, ptr %49, align 8, !tbaa !71
  %50 = getelementptr inbounds nuw i8, ptr %3, i64 180
  %51 = getelementptr inbounds nuw i8, ptr %3, i64 182
  store i8 10, ptr %51, align 2, !tbaa !72
  %52 = tail call ptr @ff_get_coded_side_data(ptr noundef nonnull %0, i32 noundef 29) #9
  %.not52 = icmp eq ptr %52, null
  br i1 %.not52, label %59, label %53

53:                                               ; preds = %48
  %54 = getelementptr inbounds nuw i8, ptr %52, i64 8
  %55 = load i64, ptr %54, align 8, !tbaa !73
  %56 = icmp ugt i64 %55, 8
  br i1 %56, label %57, label %59

57:                                               ; preds = %53
  %58 = load ptr, ptr %52, align 8, !tbaa !75
  tail call void @llvm.memcpy.p0.p0.i64(ptr noundef nonnull align 4 dereferenceable(9) %50, ptr noundef nonnull align 1 dereferenceable(9) %58, i64 9, i1 false), !tbaa.struct !76
  br label %59

59:                                               ; preds = %48, %53, %57, %14, %1
  %.040 = phi i32 [ %12, %1 ], [ -12, %14 ], [ %.0, %57 ], [ %.0, %53 ], [ %.0, %48 ]
  ret i32 %.040
}